; Function Attrs: mustprogress nofree norecurse nosync nounwind willreturn memory(argmem: read) uwtable
define noundef double @_ZNK32pxrInternal_v0_24__pxrReserved__10GfMatrix2f14GetDeterminantEv(ptr noundef nonnull readonly align 4 captures(none) dereferenceable(16) %0) local_unnamed_addr #6 align 2 {
  %2 = load float, ptr %0, align 4
  %3 = getelementptr inbounds nuw i8, ptr %0, i64 8
  %4 = getelementptr inbounds nuw i8, ptr %0, i64 12
  %5 = load float, ptr %4, align 4
  %6 = getelementptr inbounds nuw i8, ptr %0, i64 4
  %7 = load float, ptr %6, align 4
  %8 = load float, ptr %3, align 4
  %9 = fneg float %8
  %10 = fmul float %7, %9
  %11 = tail call float @llvm.fmuladd.f32(float %2, float %5, float %10)
  %12 = fpext float %11 to double
  ret double %12
}